target datalayout = "e-m:e-p270:32:32-p271:32:32-p272:64:64-i64:64-i128:128-f80:128-n8:16:32:64-S128"
target triple = "x86_64-pc-linux-gnu"

@hf_dlep_dataitem_latency = internal global i32 0, align 4
@.str.217 = private unnamed_addr constant [11 x i8] c": %lu (us)\00", align 1

; Function Attrs: null_pointer_is_valid sspstrong uwtable
define internal i32 @decode_dataitem_latency(ptr noundef %0, ptr noundef %1, ptr noundef %2, ptr noundef %3) #0 {
  %5 = alloca ptr, align 8
  %6 = alloca ptr, align 8
  %7 = alloca ptr, align 8
  %8 = alloca ptr, align 8
  %9 = alloca ptr, align 8
  %10 = alloca i32, align 4
  %11 = alloca i64, align 8
  store ptr %0, ptr %5, align 8
  store ptr %1, ptr %6, align 8
  store ptr %2, ptr %7, align 8
  store ptr %3, ptr %8, align 8
  call void @llvm.lifetime.start.p0(i64 8, ptr %9) #6
  %12 = load ptr, ptr %7, align 8
  %13 = call ptr @proto_tree_get_parent(ptr noundef %12)
  store ptr %13, ptr %9, align 8
  call void @llvm.lifetime.start.p0(i64 4, ptr %10) #6
  store i32 0, ptr %10, align 4
  call void @llvm.lifetime.start.p0(i64 8, ptr %11) #6
  %14 = load ptr, ptr %7, align 8
  %15 = load i32, ptr @hf_dlep_dataitem_latency, align 4
  %16 = load ptr, ptr %5, align 8
  %17 = load i32, ptr %10, align 4
  %18 = call ptr @proto_tree_add_item_ret_uint64(ptr noundef %14, i32 noundef %15, ptr noundef %16, i32 noundef %17, i32 noundef 8, i32 noundef 0, ptr noundef %11)
  %19 = load ptr, ptr %9, align 8
  %20 = load i64, ptr %11, align 8
  call void (ptr, ptr, ...) @proto_item_append_text(ptr noundef %19, ptr noundef @.str.217, i64 noundef %20)
  %21 = load i32, ptr %10, align 4
  %22 = add i32 %21, 8
  store i32 %22, ptr %10, align 4
  %23 = load i32, ptr %10, align 4
  call void @llvm.lifetime.end.p0(i64 8, ptr %11) #6
  call void @llvm.lifetime.end.p0(i64 4, ptr %10) #6
  call void @llvm.lifetime.end.p0(i64 8, ptr %9) #6
  ret i32 %23
}